target datalayout = "e-m:e-p270:32:32-p271:32:32-p272:64:64-i64:64-i128:128-f80:128-n8:16:32:64-S128"
target triple = "x86_64-pc-linux-gnu"

%class.NativeCallStack = type { [4 x ptr] }
%class.VirtualMemoryWalker = type { ptr }
%class.VirtualMemoryRegion = type { ptr, i64 }
%class.ReservedMemoryRegion = type <{ %class.VirtualMemoryRegion, %class.SortedLinkedList, %class.NativeCallStack, i8, [7 x i8] }>
%class.SortedLinkedList = type { %class.LinkedListImpl }
%class.LinkedListImpl = type { %class.LinkedList, ptr }
%class.LinkedList = type { ptr, ptr }
%class.LinkedListNode.3 = type { %class.ReservedMemoryRegion, ptr }
%class.ThreadCritical = type { i8 }
%class.LinkedList.2 = type { ptr, ptr }
%class.PrintRegionWalker = type { %class.VirtualMemoryWalker, ptr, ptr, %class.NativeCallStackPrinter }
%class.NativeCallStackPrinter = type { %class.Arena, %class.ResourceHashtable, ptr }
%class.Arena = type { i8, i8, i64, ptr, ptr, ptr, ptr }
%class.ResourceHashtable = type { %class.ResourceHashtableBase.base, [4 x i8] }
%class.ResourceHashtableBase.base = type <{ %class.FixedResourceHashtableStorage, i32 }>
%class.FixedResourceHashtableStorage = type { [293 x ptr] }
%class.ResourceHashtableNode = type { i32, ptr, ptr, ptr }

@_ZN20VirtualMemoryTracker17_reserved_regionsE = hidden global ptr null, align 8
@_ZTV19VirtualMemoryWalker = linkonce_odr hidden unnamed_addr constant { [3 x ptr] } { [3 x ptr] [ptr null, ptr null, ptr @_ZN19VirtualMemoryWalker18do_allocation_siteEPK20ReservedMemoryRegion] }, comdat, align 8
@_ZTV17PrintRegionWalker = linkonce_odr hidden unnamed_addr constant { [3 x ptr] } { [3 x ptr] [ptr null, ptr null, ptr @_ZN17PrintRegionWalker18do_allocation_siteEPK20ReservedMemoryRegion] }, comdat, align 8

; Function Attrs: mustprogress nounwind uwtable
define linkonce_odr hidden noundef i32 @_ZNK29FixedResourceHashtableStorageILj293EPhPKcE10table_sizeEv(ptr noundef nonnull align 8 dereferenceable(2344) %0) #1 comdat align 2 {
  %2 = alloca ptr, align 8
  store ptr %0, ptr %2, align 8
  ret i32 293
}

; Function Attrs: mustprogress nounwind uwtable
define linkonce_odr hidden noundef ptr @_ZNK29FixedResourceHashtableStorageILj293EPhPKcE5tableEv(ptr noundef nonnull align 8 dereferenceable(2344) %0) #1 comdat align 2 {
  %2 = alloca ptr, align 8
  store ptr %0, ptr %2, align 8
  %3 = load ptr, ptr %2, align 8
  %4 = getelementptr inbounds %class.FixedResourceHashtableStorage, ptr %3, i32 0, i32 0
  %5 = getelementptr inbounds [293 x ptr], ptr %4, i64 0, i64 0
  ret ptr %5
}

; Function Attrs: mustprogress nounwind uwtable
define linkonce_odr hidden noundef ptr @_ZN21ResourceHashtableBaseI29FixedResourceHashtableStorageILj293EPhPKcES1_S3_LN6AnyObj15allocation_typeE2EL8MEMFLAGS12EXadL_Z14primitive_hashIS1_EjRKT_EEXadL_Z16primitive_equalsIS1_EbSB_SB_EEE9bucket_atEj(ptr noundef nonnull align 8 dereferenceable(2348) %0, i32 noundef %1) #1 comdat align 2 {
  %3 = alloca ptr, align 8
  %4 = alloca i32, align 4
  %5 = alloca ptr, align 8
  store ptr %0, ptr %3, align 8
  store i32 %1, ptr %4, align 4
  %6 = load ptr, ptr %3, align 8
  %7 = call noundef ptr @_ZNK21ResourceHashtableBaseI29FixedResourceHashtableStorageILj293EPhPKcES1_S3_LN6AnyObj15allocation_typeE2EL8MEMFLAGS12EXadL_Z14primitive_hashIS1_EjRKT_EEXadL_Z16primitive_equalsIS1_EbSB_SB_EEE5tableEv(ptr noundef nonnull align 8 dereferenceable(2348) %6)
  store ptr %7, ptr %5, align 8
  %8 = load ptr, ptr %5, align 8
  %9 = load i32, ptr %4, align 4
  %10 = zext i32 %9 to i64
  %11 = getelementptr inbounds ptr, ptr %8, i64 %10
  ret ptr %11
}

; Function Attrs: mustprogress nounwind uwtable
define linkonce_odr hidden noundef i32 @_ZNK21ResourceHashtableBaseI29FixedResourceHashtableStorageILj293EPhPKcES1_S3_LN6AnyObj15allocation_typeE2EL8MEMFLAGS12EXadL_Z14primitive_hashIS1_EjRKT_EEXadL_Z16primitive_equalsIS1_EbSB_SB_EEE10table_sizeEv(ptr noundef nonnull align 8 dereferenceable(2348) %0) #1 comdat align 2 {
  %2 = alloca ptr, align 8
  store ptr %0, ptr %2, align 8
  %3 = load ptr, ptr %2, align 8
  %4 = call noundef i32 @_ZNK29FixedResourceHashtableStorageILj293EPhPKcE10table_sizeEv(ptr noundef nonnull align 8 dereferenceable(2344) %3)
  ret i32 %4
}

; Function Attrs: mustprogress nounwind uwtable
define linkonce_odr hidden noundef ptr @_ZNK21ResourceHashtableBaseI29FixedResourceHashtableStorageILj293EPhPKcES1_S3_LN6AnyObj15allocation_typeE2EL8MEMFLAGS12EXadL_Z14primitive_hashIS1_EjRKT_EEXadL_Z16primitive_equalsIS1_EbSB_SB_EEE5tableEv(ptr noundef nonnull align 8 dereferenceable(2348) %0) #1 comdat align 2 {
  %2 = alloca ptr, align 8
  store ptr %0, ptr %2, align 8
  %3 = load ptr, ptr %2, align 8
  %4 = call noundef ptr @_ZNK29FixedResourceHashtableStorageILj293EPhPKcE5tableEv(ptr noundef nonnull align 8 dereferenceable(2344) %3)
  ret ptr %4
}

; Function Attrs: mustprogress nounwind uwtable
define linkonce_odr hidden void @_ZN21ResourceHashtableBaseI29FixedResourceHashtableStorageILj293EPhPKcES1_S3_LN6AnyObj15allocation_typeE2EL8MEMFLAGS12EXadL_Z14primitive_hashIS1_EjRKT_EEXadL_Z16primitive_equalsIS1_EbSB_SB_EEED2Ev(ptr noundef nonnull align 8 dereferenceable(2348) %0) unnamed_addr #1 comdat align 2 {
  %2 = alloca ptr, align 8
  %3 = alloca ptr, align 8
  %4 = alloca i32, align 4
  %5 = alloca ptr, align 8
  %6 = alloca ptr, align 8
  store ptr %0, ptr %2, align 8
  %7 = load ptr, ptr %2, align 8
  %8 = call noundef ptr @_ZNK21ResourceHashtableBaseI29FixedResourceHashtableStorageILj293EPhPKcES1_S3_LN6AnyObj15allocation_typeE2EL8MEMFLAGS12EXadL_Z14primitive_hashIS1_EjRKT_EEXadL_Z16primitive_equalsIS1_EbSB_SB_EEE5tableEv(ptr noundef nonnull align 8 dereferenceable(2348) %7)
  store ptr %8, ptr %3, align 8
  %9 = call noundef i32 @_ZNK21ResourceHashtableBaseI29FixedResourceHashtableStorageILj293EPhPKcES1_S3_LN6AnyObj15allocation_typeE2EL8MEMFLAGS12EXadL_Z14primitive_hashIS1_EjRKT_EEXadL_Z16primitive_equalsIS1_EbSB_SB_EEE10table_sizeEv(ptr noundef nonnull align 8 dereferenceable(2348) %7)
  store i32 %9, ptr %4, align 4
  br label %10

10:                                               ; preds = %30, %1
  %11 = load ptr, ptr %3, align 8
  %12 = load i32, ptr %4, align 4
  %13 = call noundef ptr @_ZN21ResourceHashtableBaseI29FixedResourceHashtableStorageILj293EPhPKcES1_S3_LN6AnyObj15allocation_typeE2EL8MEMFLAGS12EXadL_Z14primitive_hashIS1_EjRKT_EEXadL_Z16primitive_equalsIS1_EbSB_SB_EEE9bucket_atEj(ptr noundef nonnull align 8 dereferenceable(2348) %7, i32 noundef %12)
  %14 = icmp ult ptr %11, %13
  br i1 %14, label %15, label %33

15:                                               ; preds = %10
  %16 = load ptr, ptr %3, align 8
  %17 = load ptr, ptr %16, align 8
  store ptr %17, ptr %5, align 8
  br label %18

18:                                               ; preds = %29, %15
  %19 = load ptr, ptr %5, align 8
  %20 = icmp ne ptr %19, null
  br i1 %20, label %21, label %30

21:                                               ; preds = %18
  %22 = load ptr, ptr %5, align 8
  store ptr %22, ptr %6, align 8
  %23 = load ptr, ptr %5, align 8
  %24 = getelementptr inbounds %class.ResourceHashtableNode, ptr %23, i32 0, i32 3
  %25 = load ptr, ptr %24, align 8
  store ptr %25, ptr %5, align 8
  %26 = load ptr, ptr %6, align 8
  %27 = icmp eq ptr %26, null
  br i1 %27, label %29, label %28

28:                                               ; preds = %21
  call void @_ZN6AnyObjdlEPv(ptr noundef %26) #10
  br label %29

29:                                               ; preds = %28, %21
  br label %18, !llvm.loop !28

30:                                               ; preds = %18
  %31 = load ptr, ptr %3, align 8
  %32 = getelementptr inbounds ptr, ptr %31, i32 1
  store ptr %32, ptr %3, align 8
  br label %10, !llvm.loop !29

33:                                               ; preds = %10
  ret void
}

; Function Attrs: mustprogress nounwind uwtable
define linkonce_odr hidden void @_ZN17ResourceHashtableIPhPKcLj293ELN6AnyObj15allocation_typeE2EL8MEMFLAGS12EXadL_Z14primitive_hashIS0_EjRKT_EEXadL_Z16primitive_equalsIS0_EbS9_S9_EEED2Ev(ptr noundef nonnull align 8 dereferenceable(2348) %0) unnamed_addr #1 comdat align 2 {
  %2 = alloca ptr, align 8
  store ptr %0, ptr %2, align 8
  %3 = load ptr, ptr %2, align 8
  call void @_ZN21ResourceHashtableBaseI29FixedResourceHashtableStorageILj293EPhPKcES1_S3_LN6AnyObj15allocation_typeE2EL8MEMFLAGS12EXadL_Z14primitive_hashIS1_EjRKT_EEXadL_Z16primitive_equalsIS1_EbSB_SB_EEED2Ev(ptr noundef nonnull align 8 dereferenceable(2348) %3) #10
  ret void
}

; Function Attrs: mustprogress nounwind uwtable
define linkonce_odr hidden void @_ZN22NativeCallStackPrinterD2Ev(ptr noundef nonnull align 8 dereferenceable(2408) %0) unnamed_addr #1 comdat align 2 {
  %2 = alloca ptr, align 8
  store ptr %0, ptr %2, align 8
  %3 = load ptr, ptr %2, align 8
  %4 = getelementptr inbounds %class.NativeCallStackPrinter, ptr %3, i32 0, i32 1
  call void @_ZN17ResourceHashtableIPhPKcLj293ELN6AnyObj15allocation_typeE2EL8MEMFLAGS12EXadL_Z14primitive_hashIS0_EjRKT_EEXadL_Z16primitive_equalsIS0_EbS9_S9_EEED2Ev(ptr noundef nonnull align 8 dereferenceable(2348) %4) #10
  %5 = getelementptr inbounds %class.NativeCallStackPrinter, ptr %3, i32 0, i32 0
  call void @_ZN5ArenaD1Ev(ptr noundef nonnull align 8 dereferenceable(48) %5) #10
  ret void
}

; Function Attrs: mustprogress nounwind uwtable
define linkonce_odr hidden noundef ptr @_ZNK14LinkedListNodeI20ReservedMemoryRegionE4nextEv(ptr noundef nonnull align 8 dereferenceable(88) %0) #1 comdat align 2 {
  %2 = alloca ptr, align 8
  store ptr %0, ptr %2, align 8
  %3 = load ptr, ptr %2, align 8
  %4 = getelementptr inbounds %class.LinkedListNode.3, ptr %3, i32 0, i32 1
  %5 = load ptr, ptr %4, align 8
  ret ptr %5
}

; Function Attrs: mustprogress nounwind uwtable
define linkonce_odr hidden noundef ptr @_ZNK14LinkedListNodeI20ReservedMemoryRegionE4peekEv(ptr noundef nonnull align 8 dereferenceable(88) %0) #1 comdat align 2 {
  %2 = alloca ptr, align 8
  store ptr %0, ptr %2, align 8
  %3 = load ptr, ptr %2, align 8
  %4 = getelementptr inbounds %class.LinkedListNode.3, ptr %3, i32 0, i32 0
  ret ptr %4
}

; Function Attrs: mustprogress nounwind uwtable
define linkonce_odr hidden noundef ptr @_ZNK10LinkedListI20ReservedMemoryRegionE4headEv(ptr noundef nonnull align 8 dereferenceable(16) %0) #1 comdat align 2 {
  %2 = alloca ptr, align 8
  store ptr %0, ptr %2, align 8
  %3 = load ptr, ptr %2, align 8
  %4 = getelementptr inbounds %class.LinkedList.2, ptr %3, i32 0, i32 1
  %5 = load ptr, ptr %4, align 8
  ret ptr %5
}

; Function Attrs: mustprogress nounwind uwtable
define linkonce_odr hidden void @_ZN19VirtualMemoryWalkerC2Ev(ptr noundef nonnull align 8 dereferenceable(8) %0) unnamed_addr #1 comdat align 2 {
  %2 = alloca ptr, align 8
  store ptr %0, ptr %2, align 8
  %3 = load ptr, ptr %2, align 8
  store ptr getelementptr inbounds inrange(-16, 8) ({ [3 x ptr] }, ptr @_ZTV19VirtualMemoryWalker, i32 0, i32 0, i32 2), ptr %3, align 8
  ret void
}

; Function Attrs: mustprogress nounwind uwtable
define linkonce_odr hidden void @_ZN17PrintRegionWalkerD2Ev(ptr noundef nonnull align 8 dereferenceable(2432) %0) unnamed_addr #1 comdat align 2 {
  %2 = alloca ptr, align 8
  store ptr %0, ptr %2, align 8
  %3 = load ptr, ptr %2, align 8
  store ptr getelementptr inbounds inrange(-16, 8) ({ [3 x ptr] }, ptr @_ZTV17PrintRegionWalker, i32 0, i32 0, i32 2), ptr %3, align 8
  %4 = getelementptr inbounds %class.PrintRegionWalker, ptr %3, i32 0, i32 3
  call void @_ZN22NativeCallStackPrinterD2Ev(ptr noundef nonnull align 8 dereferenceable(2408) %4) #10
  ret void
}

; Function Attrs: mustprogress nounwind uwtable
define hidden noundef zeroext i1 @_ZN20VirtualMemoryTracker19walk_virtual_memoryEP19VirtualMemoryWalker(ptr noundef %0) #1 align 2 {
  %2 = alloca i1, align 1
  %3 = alloca ptr, align 8
  %4 = alloca %class.ThreadCritical, align 1
  %5 = alloca ptr, align 8
  %6 = alloca ptr, align 8
  %7 = alloca i32, align 4
  store ptr %0, ptr %3, align 8
  call void @_ZN14ThreadCriticalC1Ev(ptr noundef nonnull align 1 dereferenceable(1) %4)
  %8 = load ptr, ptr @_ZN20VirtualMemoryTracker17_reserved_regionsE, align 8
  %9 = icmp ne ptr %8, null
  br i1 %9, label %10, label %30

10:                                               ; preds = %1
  %11 = load ptr, ptr @_ZN20VirtualMemoryTracker17_reserved_regionsE, align 8
  %12 = call noundef ptr @_ZNK10LinkedListI20ReservedMemoryRegionE4headEv(ptr noundef nonnull align 8 dereferenceable(16) %11)
  store ptr %12, ptr %5, align 8
  br label %13

13:                                               ; preds = %26, %10
  %14 = load ptr, ptr %5, align 8
  %15 = icmp ne ptr %14, null
  br i1 %15, label %16, label %29

16:                                               ; preds = %13
  %17 = load ptr, ptr %5, align 8
  %18 = call noundef ptr @_ZNK14LinkedListNodeI20ReservedMemoryRegionE4peekEv(ptr noundef nonnull align 8 dereferenceable(88) %17)
  store ptr %18, ptr %6, align 8
  %19 = load ptr, ptr %3, align 8
  %20 = load ptr, ptr %6, align 8
  %21 = load ptr, ptr %19, align 8
  %22 = getelementptr inbounds ptr, ptr %21, i64 0
  %23 = load ptr, ptr %22, align 8
  %24 = call noundef zeroext i1 %23(ptr noundef nonnull align 8 dereferenceable(8) %19, ptr noundef %20)
  br i1 %24, label %26, label %25

25:                                               ; preds = %16
  store i1 false, ptr %2, align 1
  store i32 1, ptr %7, align 4
  br label %31

26:                                               ; preds = %16
  %27 = load ptr, ptr %5, align 8
  %28 = call noundef ptr @_ZNK14LinkedListNodeI20ReservedMemoryRegionE4nextEv(ptr noundef nonnull align 8 dereferenceable(88) %27)
  store ptr %28, ptr %5, align 8
  br label %13, !llvm.loop !15

29:                                               ; preds = %13
  br label %30

30:                                               ; preds = %29, %1
  store i1 true, ptr %2, align 1
  store i32 1, ptr %7, align 4
  br label %31

31:                                               ; preds = %30, %25
  call void @_ZN14ThreadCriticalD1Ev(ptr noundef nonnull align 1 dereferenceable(1) %4) #10
  %32 = load i1, ptr %2, align 1
  ret i1 %32
}

; Function Attrs: mustprogress nounwind uwtable
define linkonce_odr hidden void @_ZN17PrintRegionWalkerC2EPKvP12outputStream(ptr noundef nonnull align 8 dereferenceable(2432) %0, ptr noundef %1, ptr noundef %2) unnamed_addr #1 comdat align 2 {
  %4 = alloca ptr, align 8
  %5 = alloca ptr, align 8
  %6 = alloca ptr, align 8
  store ptr %0, ptr %4, align 8
  store ptr %1, ptr %5, align 8
  store ptr %2, ptr %6, align 8
  %7 = load ptr, ptr %4, align 8
  call void @_ZN19VirtualMemoryWalkerC2Ev(ptr noundef nonnull align 8 dereferenceable(8) %7) #10
  store ptr getelementptr inbounds inrange(-16, 8) ({ [3 x ptr] }, ptr @_ZTV17PrintRegionWalker, i32 0, i32 0, i32 2), ptr %7, align 8
  %8 = getelementptr inbounds %class.PrintRegionWalker, ptr %7, i32 0, i32 1
  %9 = load ptr, ptr %5, align 8
  store ptr %9, ptr %8, align 8
  %10 = getelementptr inbounds %class.PrintRegionWalker, ptr %7, i32 0, i32 2
  %11 = load ptr, ptr %6, align 8
  store ptr %11, ptr %10, align 8
  %12 = getelementptr inbounds %class.PrintRegionWalker, ptr %7, i32 0, i32 3
  %13 = load ptr, ptr %6, align 8
  call void @_ZN22NativeCallStackPrinterC1EP12outputStream(ptr noundef nonnull align 8 dereferenceable(2408) %12, ptr noundef %13)
  ret void
}

; Function Attrs: mustprogress nounwind uwtable
define hidden noundef zeroext i1 @_ZN20VirtualMemoryTracker23print_containing_regionEPKvP12outputStream(ptr noundef %0, ptr noundef %1) #1 align 2 {
  %3 = alloca ptr, align 8
  %4 = alloca ptr, align 8
  %5 = alloca %class.PrintRegionWalker, align 8
  store ptr %0, ptr %3, align 8
  store ptr %1, ptr %4, align 8
  %6 = load ptr, ptr %3, align 8
  %7 = load ptr, ptr %4, align 8
  call void @_ZN17PrintRegionWalkerC2EPKvP12outputStream(ptr noundef nonnull align 8 dereferenceable(2432) %5, ptr noundef %6, ptr noundef %7)
  %8 = call noundef zeroext i1 @_ZN20VirtualMemoryTracker19walk_virtual_memoryEP19VirtualMemoryWalker(ptr noundef %5)
  %9 = xor i1 %8, true
  call void @_ZN17PrintRegionWalkerD2Ev(ptr noundef nonnull align 8 dereferenceable(2432) %5) #10
  ret i1 %9
}