; Function Attrs: mustprogress nounwind uwtable
define hidden noundef zeroext i1 @_ZN20VirtualMemoryTracker23print_containing_regionEPKvP12outputStream(ptr noundef %0, ptr noundef %1) local_unnamed_addr #0 align 2 {
  %3 = alloca %class.ThreadCritical, align 1
  %4 = alloca %class.PrintRegionWalker, align 8
  store ptr getelementptr inbounds inrange(-16, 8) (i8, ptr @_ZTV17PrintRegionWalker, i64 16), ptr %4, align 8
  %5 = getelementptr inbounds i8, ptr %4, i64 8
  store ptr %0, ptr %5, align 8
  %6 = getelementptr inbounds i8, ptr %4, i64 16
  store ptr %1, ptr %6, align 8
  %7 = getelementptr inbounds i8, ptr %4, i64 24
  call void @_ZN22NativeCallStackPrinterC1EP12outputStream(ptr noundef nonnull align 8 dereferenceable(2408) %7, ptr noundef %1) #14
  call void @llvm.lifetime.start.p0(i64 1, ptr nonnull %3)
  call void @_ZN14ThreadCriticalC1Ev(ptr noundef nonnull align 1 dereferenceable(1) %3) #14
  %8 = load ptr, ptr @_ZN20VirtualMemoryTracker17_reserved_regionsE, align 8
  %.not.i = icmp eq ptr %8, null
  br i1 %.not.i, label %_ZN20VirtualMemoryTracker19walk_virtual_memoryEP19VirtualMemoryWalker.exit, label %9

9:                                                ; preds = %2
  %10 = getelementptr inbounds i8, ptr %8, i64 8
  %.069.i = load ptr, ptr %10, align 8
  %.not810.i = icmp eq ptr %.069.i, null
  br i1 %.not810.i, label %_ZN20VirtualMemoryTracker19walk_virtual_memoryEP19VirtualMemoryWalker.exit, label %.lr.ph.i

11:                                               ; preds = %.lr.ph.i
  %12 = getelementptr inbounds i8, ptr %.0611.i, i64 80
  %.06.i = load ptr, ptr %12, align 8
  %.not8.i = icmp eq ptr %.06.i, null
  br i1 %.not8.i, label %_ZN20VirtualMemoryTracker19walk_virtual_memoryEP19VirtualMemoryWalker.exit.loopexit, label %.lr.ph.i, !llvm.loop !9

.lr.ph.i:                                         ; preds = %9, %11
  %.0611.i = phi ptr [ %.06.i, %11 ], [ %.069.i, %9 ]
  %13 = load ptr, ptr %4, align 8
  %14 = load ptr, ptr %13, align 8
  %15 = call noundef zeroext i1 %14(ptr noundef nonnull align 8 dereferenceable(8) %4, ptr noundef nonnull %.0611.i) #14
  br i1 %15, label %11, label %_ZN20VirtualMemoryTracker19walk_virtual_memoryEP19VirtualMemoryWalker.exit.loopexit

_ZN20VirtualMemoryTracker19walk_virtual_memoryEP19VirtualMemoryWalker.exit.loopexit: ; preds = %.lr.ph.i, %11
  %.ph = xor i1 %15, true
  br label %_ZN20VirtualMemoryTracker19walk_virtual_memoryEP19VirtualMemoryWalker.exit

_ZN20VirtualMemoryTracker19walk_virtual_memoryEP19VirtualMemoryWalker.exit: ; preds = %_ZN20VirtualMemoryTracker19walk_virtual_memoryEP19VirtualMemoryWalker.exit.loopexit, %2, %9
  %16 = phi i1 [ false, %2 ], [ false, %9 ], [ %.ph, %_ZN20VirtualMemoryTracker19walk_virtual_memoryEP19VirtualMemoryWalker.exit.loopexit ]
  call void @_ZN14ThreadCriticalD1Ev(ptr noundef nonnull align 1 dereferenceable(1) %3) #14
  call void @llvm.lifetime.end.p0(i64 1, ptr nonnull %3)
  store ptr getelementptr inbounds inrange(-16, 8) (i8, ptr @_ZTV17PrintRegionWalker, i64 16), ptr %4, align 8
  %17 = getelementptr inbounds i8, ptr %4, i64 72
  br label %18

18:                                               ; preds = %._crit_edge.i.i.i.i, %_ZN20VirtualMemoryTracker19walk_virtual_memoryEP19VirtualMemoryWalker.exit
  %.0.idx11.i.i.i.i = phi i64 [ 0, %_ZN20VirtualMemoryTracker19walk_virtual_memoryEP19VirtualMemoryWalker.exit ], [ %.0.add.i.i.i.i, %._crit_edge.i.i.i.i ]
  %.0.ptr.i.i.i.i = getelementptr inbounds i8, ptr %17, i64 %.0.idx11.i.i.i.i
  %19 = load ptr, ptr %.0.ptr.i.i.i.i, align 8
  %.not9.i.i.i.i = icmp eq ptr %19, null
  br i1 %.not9.i.i.i.i, label %._crit_edge.i.i.i.i, label %.lr.ph.i.i.i.i

.lr.ph.i.i.i.i:                                   ; preds = %18, %.lr.ph.i.i.i.i
  %.0810.i.i.i.i = phi ptr [ %21, %.lr.ph.i.i.i.i ], [ %19, %18 ]
  %20 = getelementptr inbounds i8, ptr %.0810.i.i.i.i, i64 24
  %21 = load ptr, ptr %20, align 8
  call void @_ZN6AnyObjdlEPv(ptr noundef nonnull %.0810.i.i.i.i) #14
  %.not.i.i.i.i = icmp eq ptr %21, null
  br i1 %.not.i.i.i.i, label %._crit_edge.i.i.i.i, label %.lr.ph.i.i.i.i, !llvm.loop !18

._crit_edge.i.i.i.i:                              ; preds = %.lr.ph.i.i.i.i, %18
  %.0.add.i.i.i.i = add nuw nsw i64 %.0.idx11.i.i.i.i, 8
  %22 = icmp ult i64 %.0.idx11.i.i.i.i, 2336
  br i1 %22, label %18, label %_ZN17PrintRegionWalkerD2Ev.exit, !llvm.loop !19

_ZN17PrintRegionWalkerD2Ev.exit:                  ; preds = %._crit_edge.i.i.i.i
  call void @_ZN5ArenaD1Ev(ptr noundef nonnull align 8 dereferenceable(48) %7) #14
  ret i1 %16
}